; Function Attrs: mustprogress uwtable
define internal void @"_ZNSt17_Function_handlerIFvjPKP4exprS3_R10ref_vectorIS0_11ast_managerEEZN2bv6solver19internalize_circuitEP3appE4$_18E9_M_invokeERKSt9_Any_dataOjOS3_SJ_S7_"(ptr noundef nonnull readonly align 8 captures(none) dereferenceable(16) %0, ptr noundef nonnull readonly align 4 captures(none) dereferenceable(4) %1, ptr noundef nonnull readonly align 8 captures(none) dereferenceable(8) %2, ptr noundef nonnull readonly align 8 captures(none) dereferenceable(8) %3, ptr noundef nonnull align 8 dereferenceable(16) %4) #3 align 2 {
  %.val = load ptr, ptr %0, align 8, !tbaa !527
  %.val5 = load i32, ptr %1, align 4, !tbaa !47
  %.val6 = load ptr, ptr %2, align 8, !tbaa !213
  %.val7 = load ptr, ptr %3, align 8, !tbaa !213
  %6 = getelementptr inbounds nuw i8, ptr %.val, i64 272
  tail call void @_ZN15bit_blaster_tplI15bit_blaster_cfgE6mk_xorEjPKP4exprS5_R10ref_vectorIS2_11ast_managerE(ptr noundef nonnull align 8 dereferenceable(32) %6, i32 noundef %.val5, ptr noundef %.val6, ptr noundef %.val7, ptr noundef nonnull align 8 dereferenceable(16) %4)
  ret void
}